target datalayout = "e-m:e-p270:32:32-p271:32:32-p272:64:64-i64:64-i128:128-f80:128-n8:16:32:64-S128"
target triple = "x86_64-unknown-linux-gnu"

@.str = private unnamed_addr constant [60 x i8] c"Cannot generate idenitity 3d LUT with less than 3 channels.\00", align 1
@_ZTIN19OpenColorIO_v2_4dev9ExceptionE = external constant ptr
@.str.1 = private unnamed_addr constant [20 x i8] c"Unknown Lut3DOrder.\00", align 1

; Function Attrs: mustprogress uwtable
define hidden void @_ZN19OpenColorIO_v2_4dev21GenerateIdentityLut3DEPfiiNS_10Lut3DOrderE(ptr noundef %img, i32 noundef %edgeLen, i32 noundef %numChannels, i32 noundef %lut3DOrder) #4 personality ptr @__gxx_personality_v0 {
entry:
  %img.addr = alloca ptr, align 8
  %edgeLen.addr = alloca i32, align 4
  %numChannels.addr = alloca i32, align 4
  %lut3DOrder.addr = alloca i32, align 4
  %exn.slot = alloca ptr, align 8
  %ehselector.slot = alloca i32, align 4
  %c = alloca float, align 4
  %i = alloca i32, align 4
  %i29 = alloca i32, align 4
  store ptr %img, ptr %img.addr, align 8
  store i32 %edgeLen, ptr %edgeLen.addr, align 4
  store i32 %numChannels, ptr %numChannels.addr, align 4
  store i32 %lut3DOrder, ptr %lut3DOrder.addr, align 4
  %0 = load ptr, ptr %img.addr, align 8
  %tobool = icmp ne ptr %0, null
  br i1 %tobool, label %if.end, label %if.then

if.then:                                          ; preds = %entry
  br label %if.end67

if.end:                                           ; preds = %entry
  %1 = load i32, ptr %numChannels.addr, align 4
  %cmp = icmp slt i32 %1, 3
  br i1 %cmp, label %if.then1, label %if.end2

if.then1:                                         ; preds = %if.end
  %exception = call ptr @__cxa_allocate_exception(i64 16) #3
  invoke void @_ZN19OpenColorIO_v2_4dev9ExceptionC1EPKc(ptr noundef nonnull align 8 dereferenceable(16) %exception, ptr noundef @.str)
          to label %invoke.cont unwind label %lpad

invoke.cont:                                      ; preds = %if.then1
  call void @__cxa_throw(ptr %exception, ptr @_ZTIN19OpenColorIO_v2_4dev9ExceptionE, ptr @_ZN19OpenColorIO_v2_4dev9ExceptionD1Ev) #14
  unreachable

lpad:                                             ; preds = %if.then1
  %2 = landingpad { ptr, i32 }
          cleanup
  %3 = extractvalue { ptr, i32 } %2, 0
  store ptr %3, ptr %exn.slot, align 8
  %4 = extractvalue { ptr, i32 } %2, 1
  store i32 %4, ptr %ehselector.slot, align 4
  call void @__cxa_free_exception(ptr %exception) #3
  br label %eh.resume

if.end2:                                          ; preds = %if.end
  %5 = load i32, ptr %edgeLen.addr, align 4
  %conv = sitofp i32 %5 to float
  %sub = fsub float %conv, 1.000000e+00
  %div = fdiv float 1.000000e+00, %sub
  store float %div, ptr %c, align 4
  %6 = load i32, ptr %lut3DOrder.addr, align 4
  %cmp3 = icmp eq i32 %6, 0
  br i1 %cmp3, label %if.then4, label %if.else

if.then4:                                         ; preds = %if.end2
  store i32 0, ptr %i, align 4
  br label %for.cond

for.cond:                                         ; preds = %for.inc, %if.then4
  %7 = load i32, ptr %i, align 4
  %8 = load i32, ptr %edgeLen.addr, align 4
  %9 = load i32, ptr %edgeLen.addr, align 4
  %mul = mul nsw i32 %8, %9
  %10 = load i32, ptr %edgeLen.addr, align 4
  %mul5 = mul nsw i32 %mul, %10
  %cmp6 = icmp slt i32 %7, %mul5
  br i1 %cmp6, label %for.body, label %for.end

for.body:                                         ; preds = %for.cond
  %11 = load i32, ptr %i, align 4
  %12 = load i32, ptr %edgeLen.addr, align 4
  %rem = srem i32 %11, %12
  %conv7 = sitofp i32 %rem to float
  %13 = load float, ptr %c, align 4
  %mul8 = fmul float %conv7, %13
  %14 = load ptr, ptr %img.addr, align 8
  %15 = load i32, ptr %numChannels.addr, align 4
  %16 = load i32, ptr %i, align 4
  %mul9 = mul nsw i32 %15, %16
  %add = add nsw i32 %mul9, 0
  %idxprom = sext i32 %add to i64
  %arrayidx = getelementptr inbounds float, ptr %14, i64 %idxprom
  store float %mul8, ptr %arrayidx, align 4
  %17 = load i32, ptr %i, align 4
  %18 = load i32, ptr %edgeLen.addr, align 4
  %div10 = sdiv i32 %17, %18
  %19 = load i32, ptr %edgeLen.addr, align 4
  %rem11 = srem i32 %div10, %19
  %conv12 = sitofp i32 %rem11 to float
  %20 = load float, ptr %c, align 4
  %mul13 = fmul float %conv12, %20
  %21 = load ptr, ptr %img.addr, align 8
  %22 = load i32, ptr %numChannels.addr, align 4
  %23 = load i32, ptr %i, align 4
  %mul14 = mul nsw i32 %22, %23
  %add15 = add nsw i32 %mul14, 1
  %idxprom16 = sext i32 %add15 to i64
  %arrayidx17 = getelementptr inbounds float, ptr %21, i64 %idxprom16
  store float %mul13, ptr %arrayidx17, align 4
  %24 = load i32, ptr %i, align 4
  %25 = load i32, ptr %edgeLen.addr, align 4
  %div18 = sdiv i32 %24, %25
  %26 = load i32, ptr %edgeLen.addr, align 4
  %div19 = sdiv i32 %div18, %26
  %27 = load i32, ptr %edgeLen.addr, align 4
  %rem20 = srem i32 %div19, %27
  %conv21 = sitofp i32 %rem20 to float
  %28 = load float, ptr %c, align 4
  %mul22 = fmul float %conv21, %28
  %29 = load ptr, ptr %img.addr, align 8
  %30 = load i32, ptr %numChannels.addr, align 4
  %31 = load i32, ptr %i, align 4
  %mul23 = mul nsw i32 %30, %31
  %add24 = add nsw i32 %mul23, 2
  %idxprom25 = sext i32 %add24 to i64
  %arrayidx26 = getelementptr inbounds float, ptr %29, i64 %idxprom25
  store float %mul22, ptr %arrayidx26, align 4
  br label %for.inc

for.inc:                                          ; preds = %for.body
  %32 = load i32, ptr %i, align 4
  %inc = add nsw i32 %32, 1
  store i32 %inc, ptr %i, align 4
  br label %for.cond, !llvm.loop !4

for.end:                                          ; preds = %for.cond
  br label %if.end67

if.else:                                          ; preds = %if.end2
  %33 = load i32, ptr %lut3DOrder.addr, align 4
  %cmp27 = icmp eq i32 %33, 1
  br i1 %cmp27, label %if.then28, label %if.else62

if.then28:                                        ; preds = %if.else
  store i32 0, ptr %i29, align 4
  br label %for.cond30

for.cond30:                                       ; preds = %for.inc59, %if.then28
  %34 = load i32, ptr %i29, align 4
  %35 = load i32, ptr %edgeLen.addr, align 4
  %36 = load i32, ptr %edgeLen.addr, align 4
  %mul31 = mul nsw i32 %35, %36
  %37 = load i32, ptr %edgeLen.addr, align 4
  %mul32 = mul nsw i32 %mul31, %37
  %cmp33 = icmp slt i32 %34, %mul32
  br i1 %cmp33, label %for.body34, label %for.end61

for.body34:                                       ; preds = %for.cond30
  %38 = load i32, ptr %i29, align 4
  %39 = load i32, ptr %edgeLen.addr, align 4
  %div35 = sdiv i32 %38, %39
  %40 = load i32, ptr %edgeLen.addr, align 4
  %div36 = sdiv i32 %div35, %40
  %41 = load i32, ptr %edgeLen.addr, align 4
  %rem37 = srem i32 %div36, %41
  %conv38 = sitofp i32 %rem37 to float
  %42 = load float, ptr %c, align 4
  %mul39 = fmul float %conv38, %42
  %43 = load ptr, ptr %img.addr, align 8
  %44 = load i32, ptr %numChannels.addr, align 4
  %45 = load i32, ptr %i29, align 4
  %mul40 = mul nsw i32 %44, %45
  %add41 = add nsw i32 %mul40, 0
  %idxprom42 = sext i32 %add41 to i64
  %arrayidx43 = getelementptr inbounds float, ptr %43, i64 %idxprom42
  store float %mul39, ptr %arrayidx43, align 4
  %46 = load i32, ptr %i29, align 4
  %47 = load i32, ptr %edgeLen.addr, align 4
  %div44 = sdiv i32 %46, %47
  %48 = load i32, ptr %edgeLen.addr, align 4
  %rem45 = srem i32 %div44, %48
  %conv46 = sitofp i32 %rem45 to float
  %49 = load float, ptr %c, align 4
  %mul47 = fmul float %conv46, %49
  %50 = load ptr, ptr %img.addr, align 8
  %51 = load i32, ptr %numChannels.addr, align 4
  %52 = load i32, ptr %i29, align 4
  %mul48 = mul nsw i32 %51, %52
  %add49 = add nsw i32 %mul48, 1
  %idxprom50 = sext i32 %add49 to i64
  %arrayidx51 = getelementptr inbounds float, ptr %50, i64 %idxprom50
  store float %mul47, ptr %arrayidx51, align 4
  %53 = load i32, ptr %i29, align 4
  %54 = load i32, ptr %edgeLen.addr, align 4
  %rem52 = srem i32 %53, %54
  %conv53 = sitofp i32 %rem52 to float
  %55 = load float, ptr %c, align 4
  %mul54 = fmul float %conv53, %55
  %56 = load ptr, ptr %img.addr, align 8
  %57 = load i32, ptr %numChannels.addr, align 4
  %58 = load i32, ptr %i29, align 4
  %mul55 = mul nsw i32 %57, %58
  %add56 = add nsw i32 %mul55, 2
  %idxprom57 = sext i32 %add56 to i64
  %arrayidx58 = getelementptr inbounds float, ptr %56, i64 %idxprom57
  store float %mul54, ptr %arrayidx58, align 4
  br label %for.inc59

for.inc59:                                        ; preds = %for.body34
  %59 = load i32, ptr %i29, align 4
  %inc60 = add nsw i32 %59, 1
  store i32 %inc60, ptr %i29, align 4
  br label %for.cond30, !llvm.loop !6

for.end61:                                        ; preds = %for.cond30
  br label %if.end66

if.else62:                                        ; preds = %if.else
  %exception63 = call ptr @__cxa_allocate_exception(i64 16) #3
  invoke void @_ZN19OpenColorIO_v2_4dev9ExceptionC1EPKc(ptr noundef nonnull align 8 dereferenceable(16) %exception63, ptr noundef @.str.1)
          to label %invoke.cont65 unwind label %lpad64

invoke.cont65:                                    ; preds = %if.else62
  call void @__cxa_throw(ptr %exception63, ptr @_ZTIN19OpenColorIO_v2_4dev9ExceptionE, ptr @_ZN19OpenColorIO_v2_4dev9ExceptionD1Ev) #14
  unreachable

lpad64:                                           ; preds = %if.else62
  %60 = landingpad { ptr, i32 }
          cleanup
  %61 = extractvalue { ptr, i32 } %60, 0
  store ptr %61, ptr %exn.slot, align 8
  %62 = extractvalue { ptr, i32 } %60, 1
  store i32 %62, ptr %ehselector.slot, align 4
  call void @__cxa_free_exception(ptr %exception63) #3
  br label %eh.resume

if.end66:                                         ; preds = %for.end61
  br label %if.end67

if.end67:                                         ; preds = %if.end66, %for.end, %if.then
  ret void

eh.resume:                                        ; preds = %lpad64, %lpad
  %exn = load ptr, ptr %exn.slot, align 8
  %sel = load i32, ptr %ehselector.slot, align 4
  %lpad.val = insertvalue { ptr, i32 } poison, ptr %exn, 0
  %lpad.val68 = insertvalue { ptr, i32 } %lpad.val, i32 %sel, 1
  resume { ptr, i32 } %lpad.val68
}