; Function Attrs: mustprogress uwtable
define hidden void @_ZN19OpenColorIO_v2_4dev21GenerateIdentityLut3DEPfiiNS_10Lut3DOrderE(ptr noundef writeonly %img, i32 noundef %edgeLen, i32 noundef %numChannels, i32 noundef %lut3DOrder) local_unnamed_addr #3 personality ptr @__gxx_personality_v0 {
entry:
  %tobool.not = icmp eq ptr %img, null
  br i1 %tobool.not, label %if.end67, label %if.end

if.end:                                           ; preds = %entry
  %cmp = icmp slt i32 %numChannels, 3
  br i1 %cmp, label %if.then1, label %if.end2

if.then1:                                         ; preds = %if.end
  %exception = tail call ptr @__cxa_allocate_exception(i64 16) #19
  invoke void @_ZN19OpenColorIO_v2_4dev9ExceptionC1EPKc(ptr noundef nonnull align 8 dereferenceable(16) %exception, ptr noundef nonnull @.str)
          to label %invoke.cont unwind label %lpad

invoke.cont:                                      ; preds = %if.then1
  tail call void @__cxa_throw(ptr nonnull %exception, ptr nonnull @_ZTIN19OpenColorIO_v2_4dev9ExceptionE, ptr nonnull @_ZN19OpenColorIO_v2_4dev9ExceptionD1Ev) #20
  unreachable

lpad:                                             ; preds = %if.then1
  %0 = landingpad { ptr, i32 }
          cleanup
  br label %eh.resume

if.end2:                                          ; preds = %if.end
  %conv = sitofp i32 %edgeLen to float
  %sub = fadd float %conv, -1.000000e+00
  %div = fdiv float 1.000000e+00, %sub
  switch i32 %lut3DOrder, label %if.else62 [
    i32 0, label %for.cond.preheader
    i32 1, label %for.cond30.preheader
  ]

for.cond30.preheader:                             ; preds = %if.end2
  %mul31 = mul nsw i32 %edgeLen, %edgeLen
  %mul32 = mul nsw i32 %mul31, %edgeLen
  %cmp3353 = icmp sgt i32 %mul32, 0
  br i1 %cmp3353, label %for.body34.preheader, label %if.end67

for.body34.preheader:                             ; preds = %for.cond30.preheader
  %1 = zext nneg i32 %numChannels to i64
  %wide.trip.count = zext nneg i32 %mul32 to i64
  br label %for.body34

for.cond.preheader:                               ; preds = %if.end2
  %mul = mul nsw i32 %edgeLen, %edgeLen
  %mul5 = mul nsw i32 %mul, %edgeLen
  %cmp655 = icmp sgt i32 %mul5, 0
  br i1 %cmp655, label %for.body.preheader, label %if.end67

for.body.preheader:                               ; preds = %for.cond.preheader
  %2 = zext nneg i32 %numChannels to i64
  %wide.trip.count64 = zext nneg i32 %mul5 to i64
  br label %for.body

for.body:                                         ; preds = %for.body.preheader, %for.body
  %indvars.iv60 = phi i64 [ 0, %for.body.preheader ], [ %indvars.iv.next61, %for.body ]
  %3 = trunc i64 %indvars.iv60 to i32
  %rem = srem i32 %3, %edgeLen
  %conv7 = sitofp i32 %rem to float
  %mul8 = fmul float %div, %conv7
  %4 = mul nsw i64 %indvars.iv60, %2
  %arrayidx = getelementptr inbounds float, ptr %img, i64 %4
  store float %mul8, ptr %arrayidx, align 4
  %div10 = sdiv i32 %3, %edgeLen
  %rem11 = srem i32 %div10, %edgeLen
  %conv12 = sitofp i32 %rem11 to float
  %mul13 = fmul float %div, %conv12
  %arrayidx17 = getelementptr i8, ptr %arrayidx, i64 4
  store float %mul13, ptr %arrayidx17, align 4
  %div19 = sdiv i32 %div10, %edgeLen
  %rem20 = srem i32 %div19, %edgeLen
  %conv21 = sitofp i32 %rem20 to float
  %mul22 = fmul float %div, %conv21
  %arrayidx26 = getelementptr i8, ptr %arrayidx, i64 8
  store float %mul22, ptr %arrayidx26, align 4
  %indvars.iv.next61 = add nuw nsw i64 %indvars.iv60, 1
  %exitcond65.not = icmp eq i64 %indvars.iv.next61, %wide.trip.count64
  br i1 %exitcond65.not, label %if.end67, label %for.body, !llvm.loop !4

for.body34:                                       ; preds = %for.body34.preheader, %for.body34
  %indvars.iv = phi i64 [ 0, %for.body34.preheader ], [ %indvars.iv.next, %for.body34 ]
  %5 = trunc i64 %indvars.iv to i32
  %div35 = sdiv i32 %5, %edgeLen
  %div36 = sdiv i32 %div35, %edgeLen
  %rem37 = srem i32 %div36, %edgeLen
  %conv38 = sitofp i32 %rem37 to float
  %mul39 = fmul float %div, %conv38
  %6 = mul nsw i64 %indvars.iv, %1
  %arrayidx43 = getelementptr inbounds float, ptr %img, i64 %6
  store float %mul39, ptr %arrayidx43, align 4
  %rem45 = srem i32 %div35, %edgeLen
  %conv46 = sitofp i32 %rem45 to float
  %mul47 = fmul float %div, %conv46
  %arrayidx51 = getelementptr i8, ptr %arrayidx43, i64 4
  store float %mul47, ptr %arrayidx51, align 4
  %rem52 = srem i32 %5, %edgeLen
  %conv53 = sitofp i32 %rem52 to float
  %mul54 = fmul float %div, %conv53
  %arrayidx58 = getelementptr i8, ptr %arrayidx43, i64 8
  store float %mul54, ptr %arrayidx58, align 4
  %indvars.iv.next = add nuw nsw i64 %indvars.iv, 1
  %exitcond.not = icmp eq i64 %indvars.iv.next, %wide.trip.count
  br i1 %exitcond.not, label %if.end67, label %for.body34, !llvm.loop !6

if.else62:                                        ; preds = %if.end2
  %exception63 = tail call ptr @__cxa_allocate_exception(i64 16) #19
  invoke void @_ZN19OpenColorIO_v2_4dev9ExceptionC1EPKc(ptr noundef nonnull align 8 dereferenceable(16) %exception63, ptr noundef nonnull @.str.1)
          to label %invoke.cont65 unwind label %lpad64

invoke.cont65:                                    ; preds = %if.else62
  tail call void @__cxa_throw(ptr nonnull %exception63, ptr nonnull @_ZTIN19OpenColorIO_v2_4dev9ExceptionE, ptr nonnull @_ZN19OpenColorIO_v2_4dev9ExceptionD1Ev) #20
  unreachable

lpad64:                                           ; preds = %if.else62
  %7 = landingpad { ptr, i32 }
          cleanup
  br label %eh.resume

if.end67:                                         ; preds = %for.body34, %for.body, %for.cond30.preheader, %for.cond.preheader, %entry
  ret void

eh.resume:                                        ; preds = %lpad64, %lpad
  %exception63.sink = phi ptr [ %exception63, %lpad64 ], [ %exception, %lpad ]
  %.pn = phi { ptr, i32 } [ %7, %lpad64 ], [ %0, %lpad ]
  tail call void @__cxa_free_exception(ptr %exception63.sink) #19
  resume { ptr, i32 } %.pn
}